target datalayout = "e-m:e-p270:32:32-p271:32:32-p272:64:64-i64:64-i128:128-f80:128-n8:16:32:64-S128"
target triple = "x86_64-pc-linux-gnu"

%struct.bitmap = type { ptr, i64 }
%struct.ewah_iterator = type { ptr, i64, i64, i64, i64, i64, i64, i32 }

; Function Attrs: nounwind uwtable
define dso_local i32 @ewah_bitmap_is_subset(ptr noundef %0, ptr noundef %1) #0 {
  %3 = alloca i32, align 4
  %4 = alloca ptr, align 8
  %5 = alloca ptr, align 8
  %6 = alloca %struct.ewah_iterator, align 8
  %7 = alloca i64, align 8
  %8 = alloca i64, align 8
  %9 = alloca i32, align 4
  store ptr %0, ptr %4, align 8, !tbaa !16
  store ptr %1, ptr %5, align 8, !tbaa !8
  call void @llvm.lifetime.start.p0(i64 64, ptr %6) #8
  call void @llvm.lifetime.start.p0(i64 8, ptr %7) #8
  call void @llvm.lifetime.start.p0(i64 8, ptr %8) #8
  %10 = load ptr, ptr %4, align 8, !tbaa !16
  call void @ewah_iterator_init(ptr noundef %6, ptr noundef %10)
  store i64 0, ptr %8, align 8, !tbaa !4
  br label %11

11:                                               ; preds = %34, %2
  %12 = load i64, ptr %8, align 8, !tbaa !4
  %13 = load ptr, ptr %5, align 8, !tbaa !8
  %14 = getelementptr inbounds nuw %struct.bitmap, ptr %13, i32 0, i32 1
  %15 = load i64, ptr %14, align 8, !tbaa !14
  %16 = icmp ult i64 %12, %15
  br i1 %16, label %17, label %37

17:                                               ; preds = %11
  %18 = call i32 @ewah_iterator_next(ptr noundef %7, ptr noundef %6)
  %19 = icmp ne i32 %18, 0
  br i1 %19, label %21, label %20

20:                                               ; preds = %17
  store i32 1, ptr %3, align 4
  store i32 1, ptr %9, align 4
  br label %47

21:                                               ; preds = %17
  %22 = load i64, ptr %7, align 8, !tbaa !4
  %23 = load ptr, ptr %5, align 8, !tbaa !8
  %24 = getelementptr inbounds nuw %struct.bitmap, ptr %23, i32 0, i32 0
  %25 = load ptr, ptr %24, align 8, !tbaa !11
  %26 = load i64, ptr %8, align 8, !tbaa !4
  %27 = getelementptr inbounds nuw i64, ptr %25, i64 %26
  %28 = load i64, ptr %27, align 8, !tbaa !4
  %29 = xor i64 %28, -1
  %30 = and i64 %22, %29
  %31 = icmp ne i64 %30, 0
  br i1 %31, label %32, label %33

32:                                               ; preds = %21
  store i32 0, ptr %3, align 4
  store i32 1, ptr %9, align 4
  br label %47

33:                                               ; preds = %21
  br label %34

34:                                               ; preds = %33
  %35 = load i64, ptr %8, align 8, !tbaa !4
  %36 = add i64 %35, 1
  store i64 %36, ptr %8, align 8, !tbaa !4
  br label %11, !llvm.loop !23

37:                                               ; preds = %11
  br label %38

38:                                               ; preds = %45, %37
  %39 = call i32 @ewah_iterator_next(ptr noundef %7, ptr noundef %6)
  %40 = icmp ne i32 %39, 0
  br i1 %40, label %41, label %46

41:                                               ; preds = %38
  %42 = load i64, ptr %7, align 8, !tbaa !4
  %43 = icmp ne i64 %42, 0
  br i1 %43, label %44, label %45

44:                                               ; preds = %41
  store i32 0, ptr %3, align 4
  store i32 1, ptr %9, align 4
  br label %47

45:                                               ; preds = %41
  br label %38, !llvm.loop !24

46:                                               ; preds = %38
  store i32 1, ptr %3, align 4
  store i32 1, ptr %9, align 4
  br label %47

47:                                               ; preds = %46, %44, %32, %20
  call void @llvm.lifetime.end.p0(i64 8, ptr %8) #8
  call void @llvm.lifetime.end.p0(i64 8, ptr %7) #8
  call void @llvm.lifetime.end.p0(i64 64, ptr %6) #8
  %48 = load i32, ptr %3, align 4
  ret i32 %48
}