; Function Attrs: nounwind uwtable
define dso_local range(i32 0, 2) i32 @ewah_bitmap_is_subset(ptr noundef %0, ptr noundef readonly captures(none) %1) local_unnamed_addr #0 {
  %3 = alloca %struct.ewah_iterator, align 8
  %4 = alloca i64, align 8
  call void @llvm.lifetime.start.p0(i64 64, ptr nonnull %3) #13
  call void @llvm.lifetime.start.p0(i64 8, ptr nonnull %4) #13
  call void @ewah_iterator_init(ptr noundef nonnull %3, ptr noundef %0) #13
  %5 = getelementptr inbounds nuw i8, ptr %1, i64 8
  %6 = load i64, ptr %5, align 8, !tbaa !11
  %.not13 = icmp eq i64 %6, 0
  br i1 %.not13, label %.preheader.preheader, label %.lr.ph

.preheader.preheader:                             ; preds = %7, %2
  br label %.preheader

7:                                                ; preds = %12
  %8 = add nuw i64 %.012, 1
  %9 = load i64, ptr %5, align 8, !tbaa !11
  %10 = icmp ult i64 %8, %9
  br i1 %10, label %.lr.ph, label %.preheader.preheader, !llvm.loop !18

.lr.ph:                                           ; preds = %2, %7
  %.012 = phi i64 [ %8, %7 ], [ 0, %2 ]
  %11 = call i32 @ewah_iterator_next(ptr noundef nonnull %4, ptr noundef nonnull %3) #13
  %.not8 = icmp eq i32 %11, 0
  br i1 %.not8, label %.loopexit, label %12

12:                                               ; preds = %.lr.ph
  %13 = load i64, ptr %4, align 8, !tbaa !12
  %14 = load ptr, ptr %1, align 8, !tbaa !4
  %15 = getelementptr inbounds nuw i64, ptr %14, i64 %.012
  %16 = load i64, ptr %15, align 8, !tbaa !12
  %17 = xor i64 %16, -1
  %18 = and i64 %13, %17
  %.not9 = icmp eq i64 %18, 0
  br i1 %.not9, label %7, label %.loopexit

.preheader:                                       ; preds = %.preheader.preheader, %20
  %19 = call i32 @ewah_iterator_next(ptr noundef nonnull %4, ptr noundef nonnull %3) #13
  %.not = icmp eq i32 %19, 0
  br i1 %.not, label %.loopexit, label %20

20:                                               ; preds = %.preheader
  %21 = load i64, ptr %4, align 8, !tbaa !12
  %.not7 = icmp eq i64 %21, 0
  br i1 %.not7, label %.preheader, label %.loopexit, !llvm.loop !19

.loopexit:                                        ; preds = %12, %.lr.ph, %.preheader, %20
  %.06 = phi i32 [ 1, %.preheader ], [ 0, %20 ], [ 0, %12 ], [ 1, %.lr.ph ]
  call void @llvm.lifetime.end.p0(i64 8, ptr nonnull %4) #13
  call void @llvm.lifetime.end.p0(i64 64, ptr nonnull %3) #13
  ret i32 %.06
}